target datalayout = "e-m:e-p270:32:32-p271:32:32-p272:64:64-i64:64-i128:128-f80:128-n8:16:32:64-S128"
target triple = "x86_64-pc-linux-gnu"

%struct.H5HF_free_section_t = type { %struct.H5FS_section_info_t, %union.anon.0 }
%struct.H5FS_section_info_t = type { i64, i64, i32, i32 }
%union.anon.0 = type { %struct.anon.2 }
%struct.anon.2 = type { %union.anon.3, i32, i32, i32, ptr, i32, i64, i32, i32, i32, ptr, i32, ptr }
%union.anon.3 = type { ptr }
%struct.anon = type { ptr, i32 }

@.str = private unnamed_addr constant [103 x i8] c"generated/home/dtcxzyw/WorkSpace/Projects/compilers/llvm-opt-benchmark/bench/hdf5/hdf5/src/H5HFspace.c\00", align 1
@H5E_HEAP_g = external global i64, align 8
@__func__.H5HF__space_create_root_cb = private unnamed_addr constant [27 x i8] c"H5HF__space_create_root_cb\00", align 1
@H5E_CANTINC_g = external global i64, align 8
@.str.15 = private unnamed_addr constant [60 x i8] c"can't increment reference count on section's indirect block\00", align 1

; Function Attrs: nounwind uwtable
define internal i32 @H5HF__space_create_root_cb(ptr noundef %0, ptr noundef %1) #0 {
  %3 = alloca ptr, align 8
  %4 = alloca ptr, align 8
  %5 = alloca ptr, align 8
  %6 = alloca ptr, align 8
  %7 = alloca i32, align 4
  %8 = alloca i8, align 1
  store ptr %0, ptr %3, align 8
  store ptr %1, ptr %4, align 8
  %9 = load ptr, ptr %3, align 8
  store ptr %9, ptr %5, align 8
  %10 = load ptr, ptr %4, align 8
  store ptr %10, ptr %6, align 8
  store i32 0, ptr %7, align 4
  store i8 0, ptr %8, align 1
  %11 = load ptr, ptr %6, align 8
  %12 = call i32 @H5HF__iblock_incr(ptr noundef %11)
  %13 = icmp slt i32 %12, 0
  br i1 %13, label %14, label %29

14:                                               ; preds = %2
  br label %15

15:                                               ; preds = %14
  br label %16

16:                                               ; preds = %15
  br label %17

17:                                               ; preds = %16
  %18 = load i64, ptr @H5E_HEAP_g, align 8
  %19 = load i64, ptr @H5E_CANTINC_g, align 8
  %20 = call i32 (ptr, ptr, i32, i64, i64, ptr, ...) @H5E_printf_stack(ptr noundef @.str, ptr noundef @__func__.H5HF__space_create_root_cb, i32 noundef 322, i64 noundef %18, i64 noundef %19, ptr noundef @.str.15)
  br label %21

21:                                               ; preds = %17
  store i8 1, ptr %8, align 1
  %22 = load i8, ptr %8, align 1
  %23 = trunc i8 %22 to i1
  %24 = zext i1 %23 to i8
  store i8 %24, ptr %8, align 1
  br label %25

25:                                               ; preds = %21
  br label %26

26:                                               ; preds = %25
  store i32 -1, ptr %7, align 4
  br label %48

27:                                               ; No predecessors!
  br label %28

28:                                               ; preds = %27
  br label %29

29:                                               ; preds = %28, %2
  %30 = load ptr, ptr %5, align 8
  %31 = getelementptr inbounds %struct.H5HF_free_section_t, ptr %30, i32 0, i32 0
  %32 = getelementptr inbounds %struct.H5FS_section_info_t, ptr %31, i32 0, i32 3
  %33 = load i32, ptr %32, align 4
  %34 = icmp eq i32 %33, 1
  br i1 %34, label %35, label %39

35:                                               ; preds = %29
  %36 = load ptr, ptr %5, align 8
  %37 = getelementptr inbounds %struct.H5HF_free_section_t, ptr %36, i32 0, i32 0
  %38 = getelementptr inbounds %struct.H5FS_section_info_t, ptr %37, i32 0, i32 3
  store i32 0, ptr %38, align 4
  br label %40

39:                                               ; preds = %29
  br label %40

40:                                               ; preds = %39, %35
  %41 = load ptr, ptr %6, align 8
  %42 = load ptr, ptr %5, align 8
  %43 = getelementptr inbounds %struct.H5HF_free_section_t, ptr %42, i32 0, i32 1
  %44 = getelementptr inbounds %struct.anon, ptr %43, i32 0, i32 0
  store ptr %41, ptr %44, align 8
  %45 = load ptr, ptr %5, align 8
  %46 = getelementptr inbounds %struct.H5HF_free_section_t, ptr %45, i32 0, i32 1
  %47 = getelementptr inbounds %struct.anon, ptr %46, i32 0, i32 1
  store i32 0, ptr %47, align 8
  br label %48

48:                                               ; preds = %40, %26
  %49 = load i32, ptr %7, align 4
  ret i32 %49
}