; Function Attrs: nounwind uwtable
define internal range(i32 -1, 1) i32 @H5HF__space_create_root_cb(ptr nocapture noundef %0, ptr noundef %1) #0 {
  %3 = tail call i32 @H5HF__iblock_incr(ptr noundef %1) #4
  %4 = icmp slt i32 %3, 0
  br i1 %4, label %5, label %9

5:                                                ; preds = %2
  %6 = load i64, ptr @H5E_HEAP_g, align 8
  %7 = load i64, ptr @H5E_CANTINC_g, align 8
  %8 = tail call i32 (ptr, ptr, i32, i64, i64, ptr, ...) @H5E_printf_stack(ptr noundef nonnull @.str, ptr noundef nonnull @__func__.H5HF__space_create_root_cb, i32 noundef 322, i64 noundef %6, i64 noundef %7, ptr noundef nonnull @.str.15) #4
  br label %17

9:                                                ; preds = %2
  %10 = getelementptr inbounds i8, ptr %0, i64 20
  %11 = load i32, ptr %10, align 4
  %12 = icmp eq i32 %11, 1
  br i1 %12, label %13, label %14

13:                                               ; preds = %9
  store i32 0, ptr %10, align 4
  br label %14

14:                                               ; preds = %9, %13
  %15 = getelementptr inbounds i8, ptr %0, i64 24
  store ptr %1, ptr %15, align 8
  %16 = getelementptr inbounds i8, ptr %0, i64 32
  store i32 0, ptr %16, align 8
  br label %17

17:                                               ; preds = %14, %5
  %.0 = phi i32 [ -1, %5 ], [ 0, %14 ]
  ret i32 %.0
}